; Function Attrs: mustprogress uwtable
define hidden noundef zeroext i1 @_ZN4cvc58internal7CDProof8addStepsERKNS0_15ProofStepBufferEbNS0_12CDPOverwriteE(ptr noundef nonnull align 8 dereferenceable(217) %this, ptr noundef nonnull align 8 dereferenceable(104) %psb, i1 noundef zeroext %ensureChildren, i32 noundef %opolicy) local_unnamed_addr #3 align 2 personality ptr @__gxx_personality_v0 {
entry:
  %agg.tmp = alloca %"class.cvc5::internal::NodeTemplate", align 8
  %call = tail call noundef nonnull align 8 dereferenceable(24) ptr @_ZNK4cvc58internal15ProofStepBuffer8getStepsEv(ptr noundef nonnull align 8 dereferenceable(104) %psb)
  %0 = load ptr, ptr %call, align 8
  %_M_finish.i = getelementptr inbounds i8, ptr %call, i64 8
  %1 = load ptr, ptr %_M_finish.i, align 8
  %cmp.i.not15 = icmp eq ptr %0, %1
  br i1 %cmp.i.not15, label %return, label %for.body

for.body:                                         ; preds = %entry, %_ZN4cvc58internal12NodeTemplateILb1EED2Ev.exit
  %__begin2.sroa.0.016 = phi ptr [ %incdec.ptr.i, %_ZN4cvc58internal12NodeTemplateILb1EED2Ev.exit ], [ %0, %entry ]
  %2 = load ptr, ptr %__begin2.sroa.0.016, align 8
  store ptr %2, ptr %agg.tmp, align 8
  %bf.load.i.i = load i64, ptr %2, align 8
  %bf.lshr.i.i = lshr i64 %bf.load.i.i, 40
  %3 = trunc i64 %bf.lshr.i.i to i32
  %bf.cast.i.i = and i32 %3, 1048575
  %cmp.i.i = icmp ult i32 %bf.cast.i.i, 1048574
  br i1 %cmp.i.i, label %if.then.i.i, label %if.else.i.i

if.then.i.i:                                      ; preds = %for.body
  %bf.value.i.i = add i64 %bf.load.i.i, 1099511627776
  %bf.shl.i.i = and i64 %bf.value.i.i, 1152920405095219200
  %bf.clear7.i.i = and i64 %bf.load.i.i, -1152920405095219201
  %bf.set.i.i = or disjoint i64 %bf.shl.i.i, %bf.clear7.i.i
  store i64 %bf.set.i.i, ptr %2, align 8
  br label %_ZN4cvc58internal12NodeTemplateILb1EEC2ERKS2_.exit

if.else.i.i:                                      ; preds = %for.body
  %cmp12.i.i = icmp eq i32 %bf.cast.i.i, 1048574
  br i1 %cmp12.i.i, label %if.then13.i.i, label %_ZN4cvc58internal12NodeTemplateILb1EEC2ERKS2_.exit

if.then13.i.i:                                    ; preds = %if.else.i.i
  %bf.set23.i.i = or i64 %bf.load.i.i, 1152920405095219200
  store i64 %bf.set23.i.i, ptr %2, align 8
  tail call void @_ZN4cvc58internal4expr9NodeValue20markRefCountMaxedOutEv(ptr noundef nonnull align 8 dereferenceable(16) %2)
  br label %_ZN4cvc58internal12NodeTemplateILb1EEC2ERKS2_.exit

_ZN4cvc58internal12NodeTemplateILb1EEC2ERKS2_.exit: ; preds = %if.then.i.i, %if.else.i.i, %if.then13.i.i
  %second = getelementptr inbounds i8, ptr %__begin2.sroa.0.016, i64 8
  %call7 = invoke noundef zeroext i1 @_ZN4cvc58internal7CDProof7addStepENS0_12NodeTemplateILb1EEERKNS0_9ProofStepEbNS0_12CDPOverwriteE(ptr noundef nonnull align 8 dereferenceable(217) %this, ptr noundef nonnull %agg.tmp, ptr noundef nonnull align 8 dereferenceable(56) %second, i1 noundef zeroext %ensureChildren, i32 noundef %opolicy)
          to label %invoke.cont unwind label %lpad

invoke.cont:                                      ; preds = %_ZN4cvc58internal12NodeTemplateILb1EEC2ERKS2_.exit
  %4 = load ptr, ptr %agg.tmp, align 8
  %bf.load.i.i3 = load i64, ptr %4, align 8
  %5 = and i64 %bf.load.i.i3, 1152920405095219200
  %cmp.not.i.i = icmp eq i64 %5, 1152920405095219200
  br i1 %cmp.not.i.i, label %_ZN4cvc58internal12NodeTemplateILb1EED2Ev.exit, label %if.then.i.i4

if.then.i.i4:                                     ; preds = %invoke.cont
  %bf.value.i.i5 = add i64 %bf.load.i.i3, 1152920405095219200
  %bf.shl.i.i6 = and i64 %bf.value.i.i5, 1152920405095219200
  %bf.clear7.i.i7 = and i64 %bf.load.i.i3, -1152920405095219201
  %bf.set.i.i8 = or disjoint i64 %bf.shl.i.i6, %bf.clear7.i.i7
  store i64 %bf.set.i.i8, ptr %4, align 8
  %cmp12.i.i9 = icmp eq i64 %bf.shl.i.i6, 0
  br i1 %cmp12.i.i9, label %if.then13.i.i10, label %_ZN4cvc58internal12NodeTemplateILb1EED2Ev.exit

if.then13.i.i10:                                  ; preds = %if.then.i.i4
  invoke void @_ZN4cvc58internal4expr9NodeValue15markForDeletionEv(ptr noundef nonnull align 8 dereferenceable(16) %4)
          to label %_ZN4cvc58internal12NodeTemplateILb1EED2Ev.exit unwind label %terminate.lpad.i

terminate.lpad.i:                                 ; preds = %if.then13.i.i10
  %6 = landingpad { ptr, i32 }
          catch ptr null
  %7 = extractvalue { ptr, i32 } %6, 0
  tail call void @__clang_call_terminate(ptr %7) #20
  unreachable

_ZN4cvc58internal12NodeTemplateILb1EED2Ev.exit:   ; preds = %invoke.cont, %if.then.i.i4, %if.then13.i.i10
  %incdec.ptr.i = getelementptr inbounds i8, ptr %__begin2.sroa.0.016, i64 64
  %cmp.i.not = icmp ne ptr %incdec.ptr.i, %1
  %or.cond.not = select i1 %call7, i1 %cmp.i.not, i1 false
  br i1 %or.cond.not, label %for.body, label %return

lpad:                                             ; preds = %_ZN4cvc58internal12NodeTemplateILb1EEC2ERKS2_.exit
  %8 = landingpad { ptr, i32 }
          cleanup
  call void @_ZN4cvc58internal12NodeTemplateILb1EED2Ev(ptr noundef nonnull align 8 dereferenceable(8) %agg.tmp) #19
  resume { ptr, i32 } %8

return:                                           ; preds = %_ZN4cvc58internal12NodeTemplateILb1EED2Ev.exit, %entry
  %cmp.i.not.lcssa = phi i1 [ true, %entry ], [ %call7, %_ZN4cvc58internal12NodeTemplateILb1EED2Ev.exit ]
  ret i1 %cmp.i.not.lcssa
}